; ModuleID = '44/187.c'
source_filename = "44/187.c"
target datalayout = "e-m:e-p270:32:32-p271:32:32-p272:64:64-i64:64-f80:128-n8:16:32:64-S128"
target triple = "x86_64-pc-linux-gnu"

@.str = private unnamed_addr constant [3 x i8] c"%d\00", align 1
@.str.1 = private unnamed_addr constant [4 x i8] c"%d\0A\00", align 1

; Function Attrs: noinline nounwind uwtable
define dso_local i32 @reverse(i32 %0) #0 {
  %2 = alloca i32, align 4
  %3 = alloca i32, align 4
  %4 = alloca i32, align 4
  %5 = alloca i32, align 4
  store i32 %0, i32* %3, align 4
  store i32 0, i32* %5, align 4
  %6 = load i32, i32* %3, align 4
  %7 = icmp sgt i32 %6, 0
  br i1 %7, label %8, label %23

8:                                                ; preds = %1
  br label %9

9:                                                ; preds = %18, %8
  %10 = load i32, i32* %3, align 4
  %11 = srem i32 %10, 10
  store i32 %11, i32* %4, align 4
  %12 = load i32, i32* %4, align 4
  %13 = load i32, i32* %5, align 4
  %14 = mul nsw i32 %13, 10
  %15 = add nsw i32 %12, %14
  store i32 %15, i32* %5, align 4
  %16 = load i32, i32* %3, align 4
  %17 = sdiv i32 %16, 10
  store i32 %17, i32* %3, align 4
  br label %18

18:                                               ; preds = %9
  %19 = load i32, i32* %3, align 4
  %20 = icmp ne i32 %19, 0
  br i1 %20, label %9, label %21

21:                                               ; preds = %18
  %22 = load i32, i32* %5, align 4
  store i32 %22, i32* %2, align 4
  br label %46

23:                                               ; preds = %1
  %24 = load i32, i32* %3, align 4
  %25 = icmp eq i32 %24, 0
  br i1 %25, label %26, label %27

26:                                               ; preds = %23
  store i32 0, i32* %2, align 4
  br label %46

27:                                               ; preds = %23
  %28 = load i32, i32* %3, align 4
  %29 = sub nsw i32 0, %28
  store i32 %29, i32* %3, align 4
  br label %30

30:                                               ; preds = %39, %27
  %31 = load i32, i32* %3, align 4
  %32 = srem i32 %31, 10
  store i32 %32, i32* %4, align 4
  %33 = load i32, i32* %4, align 4
  %34 = load i32, i32* %5, align 4
  %35 = mul nsw i32 %34, 10
  %36 = add nsw i32 %33, %35
  store i32 %36, i32* %5, align 4
  %37 = load i32, i32* %3, align 4
  %38 = sdiv i32 %37, 10
  store i32 %38, i32* %3, align 4
  br label %39

39:                                               ; preds = %30
  %40 = load i32, i32* %3, align 4
  %41 = icmp ne i32 %40, 0
  br i1 %41, label %30, label %42

42:                                               ; preds = %39
  %43 = load i32, i32* %5, align 4
  %44 = sub nsw i32 0, %43
  store i32 %44, i32* %5, align 4
  %45 = load i32, i32* %5, align 4
  store i32 %45, i32* %2, align 4
  br label %46

46:                                               ; preds = %42, %26, %21
  %47 = load i32, i32* %2, align 4
  ret i32 %47
}

; Function Attrs: noinline nounwind uwtable
define dso_local i32 @main() #0 {
  %1 = alloca i32, align 4
  %2 = alloca i32, align 4
  %3 = alloca i32, align 4
  %4 = alloca i32, align 4
  store i32 0, i32* %1, align 4
  store i32 0, i32* %2, align 4
  br label %5

5:                                                ; preds = %14, %0
  %6 = load i32, i32* %2, align 4
  %7 = icmp slt i32 %6, 6
  br i1 %7, label %8, label %17

8:                                                ; preds = %5
  %9 = call i32 (i8*, ...) @__isoc99_scanf(i8* getelementptr inbounds ([3 x i8], [3 x i8]* @.str, i64 0, i64 0), i32* %3)
  %10 = load i32, i32* %3, align 4
  %11 = call i32 @reverse(i32 %10)
  store i32 %11, i32* %4, align 4
  %12 = load i32, i32* %4, align 4
  %13 = call i32 (i8*, ...) @printf(i8* getelementptr inbounds ([4 x i8], [4 x i8]* @.str.1, i64 0, i64 0), i32 %12)
  br label %14

14:                                               ; preds = %8
  %15 = load i32, i32* %2, align 4
  %16 = add nsw i32 %15, 1
  store i32 %16, i32* %2, align 4
  br label %5

17:                                               ; preds = %5
  %18 = load i32, i32* %1, align 4
  ret i32 %18
}

declare dso_local i32 @__isoc99_scanf(i8*, ...) #1

declare dso_local i32 @printf(i8*, ...) #1


!llvm.module.flags = !{!0}
!llvm.ident = !{!1}

!0 = !{i32 1, !"wchar_size", i32 4}
!1 = !{!"clang version 10.0.0-4ubuntu1 "}
